target datalayout = "e-m:e-p270:32:32-p271:32:32-p272:64:64-i64:64-i128:128-f80:128-n8:16:32:64-S128"
target triple = "x86_64-pc-linux-gnu"

%"class.google::protobuf::internal::InternalMetadata" = type { i64 }
%"struct.google::protobuf::internal::ArenaStringPtr" = type { %"class.google::protobuf::internal::TaggedPtr" }
%"class.google::protobuf::internal::TaggedPtr" = type { ptr }
%"class.google::protobuf::Message" = type { %"class.google::protobuf::MessageLite" }
%"class.google::protobuf::MessageLite" = type { ptr, %"class.google::protobuf::internal::InternalMetadata" }
%"class.google::protobuf::internal::CachedSize" = type { %"struct.std::atomic" }
%"struct.std::atomic" = type { %"struct.std::__atomic_base" }
%"struct.std::__atomic_base" = type { i32 }
%"class.std::__cxx11::basic_string" = type { %"struct.std::__cxx11::basic_string<char>::_Alloc_hider", i64, %union.anon.6 }
%"struct.std::__cxx11::basic_string<char>::_Alloc_hider" = type { ptr }
%union.anon.6 = type { i64, [8 x i8] }
%"class.opencv_tensorflow::OpDeprecation" = type { %"class.google::protobuf::Message", %"struct.google::protobuf::internal::ArenaStringPtr", i32, %"class.google::protobuf::internal::CachedSize" }

; Function Attrs: mustprogress nounwind uwtable
define linkonce_odr hidden noundef i32 @_ZN6google8protobuf4Bits18Log2FloorNonZero64Em(i64 noundef %0) #7 comdat align 2 {
  %2 = alloca i64, align 8
  store i64 %0, ptr %2, align 8, !tbaa !38
  %3 = load i64, ptr %2, align 8, !tbaa !38
  %4 = call i64 @llvm.ctlz.i64(i64 %3, i1 true)
  %5 = trunc i64 %4 to i32
  %6 = xor i32 63, %5
  ret i32 %6
}

; Function Attrs: mustprogress nounwind uwtable
define linkonce_odr hidden noundef i32 @_ZN6google8protobuf4Bits16Log2FloorNonZeroEj(i32 noundef %0) #7 comdat align 2 {
  %2 = alloca i32, align 4
  store i32 %0, ptr %2, align 4, !tbaa !31
  %3 = load i32, ptr %2, align 4, !tbaa !31
  %4 = call i32 @llvm.ctlz.i32(i32 %3, i1 true)
  %5 = xor i32 31, %4
  ret i32 %5
}

; Function Attrs: mustprogress nounwind uwtable
define linkonce_odr hidden noundef i64 @_ZNK6google8protobuf8internal9TaggedPtrINSt7__cxx1112basic_stringIcSt11char_traitsIcESaIcEEEE6as_intEv(ptr noundef nonnull align 8 dereferenceable(8) %0) #7 comdat align 2 {
  %2 = alloca ptr, align 8
  store ptr %0, ptr %2, align 8, !tbaa !156
  %3 = load ptr, ptr %2, align 8
  %4 = getelementptr inbounds nuw %"class.google::protobuf::internal::TaggedPtr", ptr %3, i32 0, i32 0
  %5 = load ptr, ptr %4, align 8, !tbaa !158
  %6 = ptrtoint ptr %5 to i64
  ret i64 %6
}

; Function Attrs: inlinehint mustprogress nounwind uwtable
define linkonce_odr hidden noundef i64 @_ZN6google8protobuf2io17CodedOutputStream19VarintSize64PlusOneEm(i64 noundef %0) #6 comdat align 2 {
  %2 = alloca i64, align 8
  %3 = alloca i32, align 4
  store i64 %0, ptr %2, align 8, !tbaa !38
  call void @llvm.lifetime.start.p0(i64 4, ptr %3) #3
  %4 = load i64, ptr %2, align 8, !tbaa !38
  %5 = or i64 %4, 1
  %6 = call noundef i32 @_ZN6google8protobuf4Bits18Log2FloorNonZero64Em(i64 noundef %5)
  store i32 %6, ptr %3, align 4, !tbaa !31
  %7 = load i32, ptr %3, align 4, !tbaa !31
  %8 = mul i32 %7, 9
  %9 = add i32 %8, 73
  %10 = add i32 %9, 64
  %11 = udiv i32 %10, 64
  %12 = zext i32 %11 to i64
  call void @llvm.lifetime.end.p0(i64 4, ptr %3) #3
  ret i64 %12
}

; Function Attrs: inlinehint mustprogress uwtable
define linkonce_odr hidden noundef i64 @_ZN6google8protobuf2io17CodedOutputStream12VarintSize32Ej(i32 noundef %0) #5 comdat align 2 {
  %2 = alloca i32, align 4
  %3 = alloca i32, align 4
  store i32 %0, ptr %2, align 4, !tbaa !31
  call void @llvm.lifetime.start.p0(i64 4, ptr %3) #3
  %4 = load i32, ptr %2, align 4, !tbaa !31
  %5 = or i32 %4, 1
  %6 = call noundef i32 @_ZN6google8protobuf4Bits16Log2FloorNonZeroEj(i32 noundef %5)
  store i32 %6, ptr %3, align 4, !tbaa !31
  %7 = load i32, ptr %3, align 4, !tbaa !31
  %8 = mul i32 %7, 9
  %9 = add i32 %8, 73
  %10 = udiv i32 %9, 64
  %11 = zext i32 %10 to i64
  call void @llvm.lifetime.end.p0(i64 4, ptr %3) #3
  ret i64 %11
}

; Function Attrs: mustprogress uwtable
define linkonce_odr hidden noundef ptr @_ZNK6google8protobuf8internal9TaggedPtrINSt7__cxx1112basic_stringIcSt11char_traitsIcESaIcEEEE3GetEv(ptr noundef nonnull align 8 dereferenceable(8) %0) #4 comdat align 2 {
  %2 = alloca ptr, align 8
  store ptr %0, ptr %2, align 8, !tbaa !156
  %3 = load ptr, ptr %2, align 8
  %4 = call noundef i64 @_ZNK6google8protobuf8internal9TaggedPtrINSt7__cxx1112basic_stringIcSt11char_traitsIcESaIcEEEE6as_intEv(ptr noundef nonnull align 8 dereferenceable(8) %3)
  %5 = and i64 %4, -2
  %6 = inttoptr i64 %5 to ptr
  ret ptr %6
}

; Function Attrs: inlinehint mustprogress nounwind uwtable
define linkonce_odr hidden noundef i64 @_ZN6google8protobuf2io17CodedOutputStream31VarintSize32SignExtendedPlusOneEi(i32 noundef %0) #6 comdat align 2 {
  %2 = alloca i32, align 4
  store i32 %0, ptr %2, align 4, !tbaa !31
  %3 = load i32, ptr %2, align 4, !tbaa !31
  %4 = sext i32 %3 to i64
  %5 = call noundef i64 @_ZN6google8protobuf2io17CodedOutputStream19VarintSize64PlusOneEm(i64 noundef %4)
  ret i64 %5
}

; Function Attrs: inlinehint mustprogress uwtable
define linkonce_odr hidden noundef i64 @_ZN6google8protobuf8internal14WireFormatLite19LengthDelimitedSizeEm(i64 noundef %0) #5 comdat align 2 {
  %2 = alloca i64, align 8
  store i64 %0, ptr %2, align 8, !tbaa !38
  %3 = load i64, ptr %2, align 8, !tbaa !38
  %4 = load i64, ptr %2, align 8, !tbaa !38
  %5 = trunc i64 %4 to i32
  %6 = call noundef i64 @_ZN6google8protobuf2io17CodedOutputStream12VarintSize32Ej(i32 noundef %5)
  %7 = add i64 %3, %6
  ret i64 %7
}

; Function Attrs: mustprogress nounwind uwtable
define available_externally noundef i64 @_ZNKSt7__cxx1112basic_stringIcSt11char_traitsIcESaIcEE4sizeEv(ptr noundef nonnull align 8 dereferenceable(32) %0) #7 align 2 {
  %2 = alloca ptr, align 8
  store ptr %0, ptr %2, align 8, !tbaa !26
  %3 = load ptr, ptr %2, align 8
  %4 = getelementptr inbounds nuw %"class.std::__cxx11::basic_string", ptr %3, i32 0, i32 1
  %5 = load i64, ptr %4, align 8, !tbaa !74
  ret i64 %5
}

; Function Attrs: alwaysinline mustprogress uwtable
define linkonce_odr hidden noundef nonnull align 8 dereferenceable(32) ptr @_ZNK6google8protobuf8internal14ArenaStringPtr3GetB5cxx11Ev(ptr noundef nonnull align 8 dereferenceable(8) %0) #8 comdat align 2 {
  %2 = alloca ptr, align 8
  store ptr %0, ptr %2, align 8, !tbaa !24
  %3 = load ptr, ptr %2, align 8
  %4 = getelementptr inbounds nuw %"struct.google::protobuf::internal::ArenaStringPtr", ptr %3, i32 0, i32 0
  %5 = call noundef ptr @_ZNK6google8protobuf8internal9TaggedPtrINSt7__cxx1112basic_stringIcSt11char_traitsIcESaIcEEEE3GetEv(ptr noundef nonnull align 8 dereferenceable(8) %4)
  ret ptr %5
}

; Function Attrs: inlinehint mustprogress uwtable
define linkonce_odr hidden noundef i64 @_ZN6google8protobuf8internal14WireFormatLite16Int32SizePlusOneEi(i32 noundef %0) #5 comdat align 2 {
  %2 = alloca i32, align 4
  store i32 %0, ptr %2, align 4, !tbaa !31
  %3 = load i32, ptr %2, align 4, !tbaa !31
  %4 = call noundef i64 @_ZN6google8protobuf2io17CodedOutputStream31VarintSize32SignExtendedPlusOneEi(i32 noundef %3)
  ret i64 %4
}

; Function Attrs: inlinehint mustprogress nounwind uwtable
define linkonce_odr hidden noundef i32 @_ZNK17opencv_tensorflow13OpDeprecation17_internal_versionEv(ptr noundef nonnull align 8 dereferenceable(32) %0) #6 comdat align 2 {
  %2 = alloca ptr, align 8
  store ptr %0, ptr %2, align 8, !tbaa !116
  %3 = load ptr, ptr %2, align 8
  %4 = getelementptr inbounds nuw %"class.opencv_tensorflow::OpDeprecation", ptr %3, i32 0, i32 2
  %5 = load i32, ptr %4, align 8, !tbaa !130
  ret i32 %5
}

; Function Attrs: inlinehint mustprogress uwtable
define linkonce_odr hidden noundef i64 @_ZN6google8protobuf8internal14WireFormatLite10StringSizeERKNSt7__cxx1112basic_stringIcSt11char_traitsIcESaIcEEE(ptr noundef nonnull align 8 dereferenceable(32) %0) #5 comdat align 2 {
  %2 = alloca ptr, align 8
  store ptr %0, ptr %2, align 8, !tbaa !26
  %3 = load ptr, ptr %2, align 8, !tbaa !26
  %4 = call noundef i64 @_ZNKSt7__cxx1112basic_stringIcSt11char_traitsIcESaIcEE4sizeEv(ptr noundef nonnull align 8 dereferenceable(32) %3) #3
  %5 = call noundef i64 @_ZN6google8protobuf8internal14WireFormatLite19LengthDelimitedSizeEm(i64 noundef %4)
  ret i64 %5
}

; Function Attrs: mustprogress nounwind uwtable
define available_externally noundef zeroext i1 @_ZNKSt7__cxx1112basic_stringIcSt11char_traitsIcESaIcEE5emptyEv(ptr noundef nonnull align 8 dereferenceable(32) %0) #7 align 2 {
  %2 = alloca ptr, align 8
  store ptr %0, ptr %2, align 8, !tbaa !26
  %3 = load ptr, ptr %2, align 8
  %4 = call noundef i64 @_ZNKSt7__cxx1112basic_stringIcSt11char_traitsIcESaIcEE4sizeEv(ptr noundef nonnull align 8 dereferenceable(32) %3) #3
  %5 = icmp eq i64 %4, 0
  ret i1 %5
}

; Function Attrs: inlinehint mustprogress uwtable
define linkonce_odr hidden noundef nonnull align 8 dereferenceable(32) ptr @_ZNK17opencv_tensorflow13OpDeprecation21_internal_explanationB5cxx11Ev(ptr noundef nonnull align 8 dereferenceable(32) %0) #5 comdat align 2 {
  %2 = alloca ptr, align 8
  store ptr %0, ptr %2, align 8, !tbaa !116
  %3 = load ptr, ptr %2, align 8
  %4 = getelementptr inbounds nuw %"class.opencv_tensorflow::OpDeprecation", ptr %3, i32 0, i32 1
  %5 = call noundef nonnull align 8 dereferenceable(32) ptr @_ZNK6google8protobuf8internal14ArenaStringPtr3GetB5cxx11Ev(ptr noundef nonnull align 8 dereferenceable(8) %4)
  ret ptr %5
}

; Function Attrs: mustprogress uwtable
define hidden noundef i64 @_ZNK17opencv_tensorflow13OpDeprecation12ByteSizeLongEv(ptr noundef nonnull align 8 dereferenceable(32) %0) unnamed_addr #4 align 2 {
  %2 = alloca ptr, align 8
  %3 = alloca i64, align 8
  %4 = alloca i32, align 4
  store ptr %0, ptr %2, align 8, !tbaa !116
  %5 = load ptr, ptr %2, align 8
  call void @llvm.lifetime.start.p0(i64 8, ptr %3) #3
  store i64 0, ptr %3, align 8, !tbaa !38
  call void @llvm.lifetime.start.p0(i64 4, ptr %4) #3
  store i32 0, ptr %4, align 4, !tbaa !31
  %6 = call noundef nonnull align 8 dereferenceable(32) ptr @_ZNK17opencv_tensorflow13OpDeprecation21_internal_explanationB5cxx11Ev(ptr noundef nonnull align 8 dereferenceable(32) %5)
  %7 = call noundef zeroext i1 @_ZNKSt7__cxx1112basic_stringIcSt11char_traitsIcESaIcEE5emptyEv(ptr noundef nonnull align 8 dereferenceable(32) %6) #3
  br i1 %7, label %14, label %8

8:                                                ; preds = %1
  %9 = call noundef nonnull align 8 dereferenceable(32) ptr @_ZNK17opencv_tensorflow13OpDeprecation21_internal_explanationB5cxx11Ev(ptr noundef nonnull align 8 dereferenceable(32) %5)
  %10 = call noundef i64 @_ZN6google8protobuf8internal14WireFormatLite10StringSizeERKNSt7__cxx1112basic_stringIcSt11char_traitsIcESaIcEEE(ptr noundef nonnull align 8 dereferenceable(32) %9)
  %11 = add i64 1, %10
  %12 = load i64, ptr %3, align 8, !tbaa !38
  %13 = add i64 %12, %11
  store i64 %13, ptr %3, align 8, !tbaa !38
  br label %14

14:                                               ; preds = %8, %1
  %15 = call noundef i32 @_ZNK17opencv_tensorflow13OpDeprecation17_internal_versionEv(ptr noundef nonnull align 8 dereferenceable(32) %5)
  %16 = icmp ne i32 %15, 0
  br i1 %16, label %17, label %22

17:                                               ; preds = %14
  %18 = call noundef i32 @_ZNK17opencv_tensorflow13OpDeprecation17_internal_versionEv(ptr noundef nonnull align 8 dereferenceable(32) %5)
  %19 = call noundef i64 @_ZN6google8protobuf8internal14WireFormatLite16Int32SizePlusOneEi(i32 noundef %18)
  %20 = load i64, ptr %3, align 8, !tbaa !38
  %21 = add i64 %20, %19
  store i64 %21, ptr %3, align 8, !tbaa !38
  br label %22

22:                                               ; preds = %17, %14
  %23 = load i64, ptr %3, align 8, !tbaa !38
  %24 = getelementptr inbounds nuw %"class.opencv_tensorflow::OpDeprecation", ptr %5, i32 0, i32 3
  %25 = call noundef i64 @_ZNK6google8protobuf7Message29MaybeComputeUnknownFieldsSizeEmPNS0_8internal10CachedSizeE(ptr noundef nonnull align 8 dereferenceable(16) %5, i64 noundef %23, ptr noundef %24)
  call void @llvm.lifetime.end.p0(i64 4, ptr %4) #3
  call void @llvm.lifetime.end.p0(i64 8, ptr %3) #3
  ret i64 %25
}